target datalayout = "e-m:e-p270:32:32-p271:32:32-p272:64:64-i64:64-i128:128-f80:128-n8:16:32:64-S128"
target triple = "x86_64-pc-linux-gnu"

%struct.archive_write = type { %struct.archive, i32, i64, i64, ptr, i64, ptr, ptr, ptr, ptr, ptr, i32, i32, ptr, ptr, ptr, ptr, ptr, ptr, ptr, ptr, ptr, ptr, ptr, ptr, ptr, ptr }
%struct.archive = type { i32, i32, ptr, i32, ptr, i32, i32, ptr, %struct.archive_string, ptr, i32, i32, ptr, ptr, i64, i64, i64, i8, i64 }
%struct.archive_string = type { ptr, i64, i64 }
%struct.ustar = type { i64, i64, ptr, ptr, i32 }

@.str.1 = private unnamed_addr constant [26 x i8] c"Can't allocate ustar data\00", align 1
@.str.25 = private unnamed_addr constant [48 x i8] c"Can't record entry in tar file without pathname\00", align 1

; Function Attrs: nounwind uwtable
define internal i32 @archive_write_ustar_header(ptr noundef %0, ptr noundef %1) #0 {
  %3 = alloca i32, align 4
  %4 = alloca ptr, align 8
  %5 = alloca ptr, align 8
  %6 = alloca [512 x i8], align 16
  %7 = alloca i32, align 4
  %8 = alloca i32, align 4
  %9 = alloca ptr, align 8
  %10 = alloca ptr, align 8
  %11 = alloca ptr, align 8
  %12 = alloca i32, align 4
  %13 = alloca ptr, align 8
  %14 = alloca i64, align 8
  %15 = alloca %struct.archive_string, align 8
  store ptr %0, ptr %4, align 8, !tbaa !9
  store ptr %1, ptr %5, align 8, !tbaa !37
  call void @llvm.lifetime.start.p0(i64 512, ptr %6) #8
  call void @llvm.lifetime.start.p0(i64 4, ptr %7) #8
  call void @llvm.lifetime.start.p0(i64 4, ptr %8) #8
  call void @llvm.lifetime.start.p0(i64 8, ptr %9) #8
  call void @llvm.lifetime.start.p0(i64 8, ptr %10) #8
  call void @llvm.lifetime.start.p0(i64 8, ptr %11) #8
  %16 = load ptr, ptr %4, align 8, !tbaa !9
  %17 = getelementptr inbounds nuw %struct.archive_write, ptr %16, i32 0, i32 15
  %18 = load ptr, ptr %17, align 8, !tbaa !24
  store ptr %18, ptr %9, align 8, !tbaa !22
  %19 = load ptr, ptr %9, align 8, !tbaa !22
  %20 = getelementptr inbounds nuw %struct.ustar, ptr %19, i32 0, i32 2
  %21 = load ptr, ptr %20, align 8, !tbaa !35
  %22 = icmp eq ptr %21, null
  br i1 %22, label %23, label %40

23:                                               ; preds = %2
  %24 = load ptr, ptr %9, align 8, !tbaa !22
  %25 = getelementptr inbounds nuw %struct.ustar, ptr %24, i32 0, i32 4
  %26 = load i32, ptr %25, align 8, !tbaa !39
  %27 = icmp ne i32 %26, 0
  br i1 %27, label %36, label %28

28:                                               ; preds = %23
  %29 = load ptr, ptr %4, align 8, !tbaa !9
  %30 = getelementptr inbounds nuw %struct.archive_write, ptr %29, i32 0, i32 0
  %31 = call ptr @archive_string_default_conversion_for_write(ptr noundef %30)
  %32 = load ptr, ptr %9, align 8, !tbaa !22
  %33 = getelementptr inbounds nuw %struct.ustar, ptr %32, i32 0, i32 3
  store ptr %31, ptr %33, align 8, !tbaa !40
  %34 = load ptr, ptr %9, align 8, !tbaa !22
  %35 = getelementptr inbounds nuw %struct.ustar, ptr %34, i32 0, i32 4
  store i32 1, ptr %35, align 8, !tbaa !39
  br label %36

36:                                               ; preds = %28, %23
  %37 = load ptr, ptr %9, align 8, !tbaa !22
  %38 = getelementptr inbounds nuw %struct.ustar, ptr %37, i32 0, i32 3
  %39 = load ptr, ptr %38, align 8, !tbaa !40
  store ptr %39, ptr %11, align 8, !tbaa !41
  br label %44

40:                                               ; preds = %2
  %41 = load ptr, ptr %9, align 8, !tbaa !22
  %42 = getelementptr inbounds nuw %struct.ustar, ptr %41, i32 0, i32 2
  %43 = load ptr, ptr %42, align 8, !tbaa !35
  store ptr %43, ptr %11, align 8, !tbaa !41
  br label %44

44:                                               ; preds = %40, %36
  %45 = load ptr, ptr %5, align 8, !tbaa !37
  %46 = call ptr @archive_entry_pathname(ptr noundef %45)
  %47 = icmp eq ptr %46, null
  br i1 %47, label %48, label %51

48:                                               ; preds = %44
  %49 = load ptr, ptr %4, align 8, !tbaa !9
  %50 = getelementptr inbounds nuw %struct.archive_write, ptr %49, i32 0, i32 0
  call void (ptr, i32, ptr, ...) @archive_set_error(ptr noundef %50, i32 noundef -1, ptr noundef @.str.25)
  store i32 -25, ptr %3, align 4
  store i32 1, ptr %12, align 4
  br label %161

51:                                               ; preds = %44
  %52 = load ptr, ptr %5, align 8, !tbaa !37
  %53 = call ptr @archive_entry_hardlink(ptr noundef %52)
  %54 = icmp ne ptr %53, null
  br i1 %54, label %63, label %55

55:                                               ; preds = %51
  %56 = load ptr, ptr %5, align 8, !tbaa !37
  %57 = call ptr @archive_entry_symlink(ptr noundef %56)
  %58 = icmp ne ptr %57, null
  br i1 %58, label %63, label %59

59:                                               ; preds = %55
  %60 = load ptr, ptr %5, align 8, !tbaa !37
  %61 = call i32 @archive_entry_filetype(ptr noundef %60)
  %62 = icmp ne i32 %61, 32768
  br i1 %62, label %63, label %65

63:                                               ; preds = %59, %55, %51
  %64 = load ptr, ptr %5, align 8, !tbaa !37
  call void @archive_entry_set_size(ptr noundef %64, i64 noundef 0)
  br label %65

65:                                               ; preds = %63, %59
  %66 = load ptr, ptr %5, align 8, !tbaa !37
  %67 = call i32 @archive_entry_filetype(ptr noundef %66)
  %68 = icmp eq i32 16384, %67
  br i1 %68, label %69, label %121

69:                                               ; preds = %65
  call void @llvm.lifetime.start.p0(i64 8, ptr %13) #8
  call void @llvm.lifetime.start.p0(i64 8, ptr %14) #8
  %70 = load ptr, ptr %5, align 8, !tbaa !37
  %71 = call ptr @archive_entry_pathname(ptr noundef %70)
  store ptr %71, ptr %13, align 8, !tbaa !33
  %72 = load ptr, ptr %13, align 8, !tbaa !33
  %73 = icmp ne ptr %72, null
  br i1 %73, label %74, label %117

74:                                               ; preds = %69
  %75 = load ptr, ptr %13, align 8, !tbaa !33
  %76 = getelementptr inbounds i8, ptr %75, i64 0
  %77 = load i8, ptr %76, align 1, !tbaa !34
  %78 = sext i8 %77 to i32
  %79 = icmp ne i32 %78, 0
  br i1 %79, label %80, label %117

80:                                               ; preds = %74
  %81 = load ptr, ptr %13, align 8, !tbaa !33
  %82 = load ptr, ptr %13, align 8, !tbaa !33
  %83 = call i64 @strlen(ptr noundef %82) #10
  %84 = sub i64 %83, 1
  %85 = getelementptr inbounds nuw i8, ptr %81, i64 %84
  %86 = load i8, ptr %85, align 1, !tbaa !34
  %87 = sext i8 %86 to i32
  %88 = icmp ne i32 %87, 47
  br i1 %88, label %89, label %117

89:                                               ; preds = %80
  call void @llvm.lifetime.start.p0(i64 24, ptr %15) #8
  br label %90

90:                                               ; preds = %89
  %91 = getelementptr inbounds nuw %struct.archive_string, ptr %15, i32 0, i32 0
  store ptr null, ptr %91, align 8, !tbaa !42
  %92 = getelementptr inbounds nuw %struct.archive_string, ptr %15, i32 0, i32 1
  store i64 0, ptr %92, align 8, !tbaa !43
  %93 = getelementptr inbounds nuw %struct.archive_string, ptr %15, i32 0, i32 2
  store i64 0, ptr %93, align 8, !tbaa !44
  br label %94

94:                                               ; preds = %90
  br label %95

95:                                               ; preds = %94
  %96 = load ptr, ptr %13, align 8, !tbaa !33
  %97 = call i64 @strlen(ptr noundef %96) #10
  store i64 %97, ptr %14, align 8, !tbaa !45
  %98 = load i64, ptr %14, align 8, !tbaa !45
  %99 = add i64 %98, 2
  %100 = call ptr @archive_string_ensure(ptr noundef %15, i64 noundef %99)
  %101 = icmp eq ptr %100, null
  br i1 %101, label %102, label %105

102:                                              ; preds = %95
  %103 = load ptr, ptr %4, align 8, !tbaa !9
  %104 = getelementptr inbounds nuw %struct.archive_write, ptr %103, i32 0, i32 0
  call void (ptr, i32, ptr, ...) @archive_set_error(ptr noundef %104, i32 noundef 12, ptr noundef @.str.1)
  call void @archive_string_free(ptr noundef %15)
  store i32 -30, ptr %3, align 4
  store i32 1, ptr %12, align 4
  br label %114

105:                                              ; preds = %95
  %106 = getelementptr inbounds nuw %struct.archive_string, ptr %15, i32 0, i32 1
  store i64 0, ptr %106, align 8, !tbaa !43
  %107 = load ptr, ptr %13, align 8, !tbaa !33
  %108 = load i64, ptr %14, align 8, !tbaa !45
  %109 = call ptr @archive_strncat(ptr noundef %15, ptr noundef %107, i64 noundef %108)
  %110 = call ptr @archive_strappend_char(ptr noundef %15, i8 noundef signext 47)
  %111 = load ptr, ptr %5, align 8, !tbaa !37
  %112 = getelementptr inbounds nuw %struct.archive_string, ptr %15, i32 0, i32 0
  %113 = load ptr, ptr %112, align 8, !tbaa !42
  call void @archive_entry_copy_pathname(ptr noundef %111, ptr noundef %113)
  call void @archive_string_free(ptr noundef %15)
  store i32 0, ptr %12, align 4
  br label %114

114:                                              ; preds = %105, %102
  call void @llvm.lifetime.end.p0(i64 24, ptr %15) #8
  %115 = load i32, ptr %12, align 4
  switch i32 %115, label %118 [
    i32 0, label %116
  ]

116:                                              ; preds = %114
  br label %117

117:                                              ; preds = %116, %80, %74, %69
  store i32 0, ptr %12, align 4
  br label %118

118:                                              ; preds = %117, %114
  call void @llvm.lifetime.end.p0(i64 8, ptr %14) #8
  call void @llvm.lifetime.end.p0(i64 8, ptr %13) #8
  %119 = load i32, ptr %12, align 4
  switch i32 %119, label %161 [
    i32 0, label %120
  ]

120:                                              ; preds = %118
  br label %121

121:                                              ; preds = %120, %65
  store ptr null, ptr %10, align 8, !tbaa !37
  %122 = load ptr, ptr %4, align 8, !tbaa !9
  %123 = getelementptr inbounds [512 x i8], ptr %6, i64 0, i64 0
  %124 = load ptr, ptr %5, align 8, !tbaa !37
  %125 = load ptr, ptr %11, align 8, !tbaa !41
  %126 = call i32 @__archive_write_format_header_ustar(ptr noundef %122, ptr noundef %123, ptr noundef %124, i32 noundef -1, i32 noundef 1, ptr noundef %125)
  store i32 %126, ptr %7, align 4, !tbaa !11
  %127 = load i32, ptr %7, align 4, !tbaa !11
  %128 = icmp slt i32 %127, -20
  br i1 %128, label %129, label %132

129:                                              ; preds = %121
  %130 = load ptr, ptr %10, align 8, !tbaa !37
  call void @archive_entry_free(ptr noundef %130)
  %131 = load i32, ptr %7, align 4, !tbaa !11
  store i32 %131, ptr %3, align 4
  store i32 1, ptr %12, align 4
  br label %161

132:                                              ; preds = %121
  %133 = load ptr, ptr %4, align 8, !tbaa !9
  %134 = getelementptr inbounds [512 x i8], ptr %6, i64 0, i64 0
  %135 = call i32 @__archive_write_output(ptr noundef %133, ptr noundef %134, i64 noundef 512)
  store i32 %135, ptr %8, align 4, !tbaa !11
  %136 = load i32, ptr %8, align 4, !tbaa !11
  %137 = icmp slt i32 %136, -20
  br i1 %137, label %138, label %141

138:                                              ; preds = %132
  %139 = load ptr, ptr %10, align 8, !tbaa !37
  call void @archive_entry_free(ptr noundef %139)
  %140 = load i32, ptr %8, align 4, !tbaa !11
  store i32 %140, ptr %3, align 4
  store i32 1, ptr %12, align 4
  br label %161

141:                                              ; preds = %132
  %142 = load i32, ptr %8, align 4, !tbaa !11
  %143 = load i32, ptr %7, align 4, !tbaa !11
  %144 = icmp slt i32 %142, %143
  br i1 %144, label %145, label %147

145:                                              ; preds = %141
  %146 = load i32, ptr %8, align 4, !tbaa !11
  store i32 %146, ptr %7, align 4, !tbaa !11
  br label %147

147:                                              ; preds = %145, %141
  %148 = load ptr, ptr %5, align 8, !tbaa !37
  %149 = call i64 @archive_entry_size(ptr noundef %148)
  %150 = load ptr, ptr %9, align 8, !tbaa !22
  %151 = getelementptr inbounds nuw %struct.ustar, ptr %150, i32 0, i32 0
  store i64 %149, ptr %151, align 8, !tbaa !46
  %152 = load ptr, ptr %9, align 8, !tbaa !22
  %153 = getelementptr inbounds nuw %struct.ustar, ptr %152, i32 0, i32 0
  %154 = load i64, ptr %153, align 8, !tbaa !46
  %155 = sub nsw i64 0, %154
  %156 = and i64 511, %155
  %157 = load ptr, ptr %9, align 8, !tbaa !22
  %158 = getelementptr inbounds nuw %struct.ustar, ptr %157, i32 0, i32 1
  store i64 %156, ptr %158, align 8, !tbaa !47
  %159 = load ptr, ptr %10, align 8, !tbaa !37
  call void @archive_entry_free(ptr noundef %159)
  %160 = load i32, ptr %7, align 4, !tbaa !11
  store i32 %160, ptr %3, align 4
  store i32 1, ptr %12, align 4
  br label %161

161:                                              ; preds = %147, %138, %129, %118, %48
  call void @llvm.lifetime.end.p0(i64 8, ptr %11) #8
  call void @llvm.lifetime.end.p0(i64 8, ptr %10) #8
  call void @llvm.lifetime.end.p0(i64 8, ptr %9) #8
  call void @llvm.lifetime.end.p0(i64 4, ptr %8) #8
  call void @llvm.lifetime.end.p0(i64 4, ptr %7) #8
  call void @llvm.lifetime.end.p0(i64 512, ptr %6) #8
  %162 = load i32, ptr %3, align 4
  ret i32 %162
}