; Function Attrs: nounwind uwtable
define internal range(i32 -2147483648, 1) i32 @archive_write_ustar_header(ptr noundef %0, ptr noundef %1) #0 {
  %3 = alloca [512 x i8], align 16
  %4 = alloca %struct.archive_string, align 8
  call void @llvm.lifetime.start.p0(i64 512, ptr nonnull %3) #11
  %5 = getelementptr inbounds nuw i8, ptr %0, i64 248
  %6 = load ptr, ptr %5, align 8, !tbaa !17
  %7 = getelementptr inbounds nuw i8, ptr %6, i64 16
  %8 = load ptr, ptr %7, align 8, !tbaa !27
  %9 = icmp eq ptr %8, null
  br i1 %9, label %10, label %16

10:                                               ; preds = %2
  %11 = getelementptr inbounds nuw i8, ptr %6, i64 32
  %12 = load i32, ptr %11, align 8, !tbaa !29
  %.not = icmp eq i32 %12, 0
  br i1 %.not, label %13, label %._crit_edge

._crit_edge:                                      ; preds = %10
  %.phi.trans.insert = getelementptr inbounds nuw i8, ptr %6, i64 24
  %.pre = load ptr, ptr %.phi.trans.insert, align 8, !tbaa !30
  br label %16

13:                                               ; preds = %10
  %14 = tail call ptr @archive_string_default_conversion_for_write(ptr noundef nonnull %0) #11
  %15 = getelementptr inbounds nuw i8, ptr %6, i64 24
  store ptr %14, ptr %15, align 8, !tbaa !30
  store i32 1, ptr %11, align 8, !tbaa !29
  br label %16

16:                                               ; preds = %13, %._crit_edge, %2
  %.051 = phi ptr [ %8, %2 ], [ %.pre, %._crit_edge ], [ %14, %13 ]
  %17 = tail call ptr @archive_entry_pathname(ptr noundef %1) #11
  %18 = icmp eq ptr %17, null
  br i1 %18, label %19, label %20

19:                                               ; preds = %16
  tail call void (ptr, i32, ptr, ...) @archive_set_error(ptr noundef nonnull %0, i32 noundef -1, ptr noundef nonnull @.str.25) #11
  br label %60

20:                                               ; preds = %16
  %21 = tail call ptr @archive_entry_hardlink(ptr noundef %1) #11
  %.not57 = icmp eq ptr %21, null
  br i1 %.not57, label %22, label %26

22:                                               ; preds = %20
  %23 = tail call ptr @archive_entry_symlink(ptr noundef %1) #11
  %.not58 = icmp eq ptr %23, null
  br i1 %.not58, label %24, label %26

24:                                               ; preds = %22
  %25 = tail call i32 @archive_entry_filetype(ptr noundef %1) #11
  %.not59 = icmp eq i32 %25, 32768
  br i1 %.not59, label %27, label %26

26:                                               ; preds = %24, %22, %20
  tail call void @archive_entry_set_size(ptr noundef %1, i64 noundef 0) #11
  br label %27

27:                                               ; preds = %26, %24
  %28 = tail call i32 @archive_entry_filetype(ptr noundef %1) #11
  %29 = icmp eq i32 %28, 16384
  br i1 %29, label %30, label %.critedge

30:                                               ; preds = %27
  %31 = tail call ptr @archive_entry_pathname(ptr noundef %1) #11
  %.not60 = icmp eq ptr %31, null
  br i1 %.not60, label %.critedge, label %32

32:                                               ; preds = %30
  %33 = load i8, ptr %31, align 1, !tbaa !26
  %.not61 = icmp eq i8 %33, 0
  br i1 %.not61, label %.critedge, label %34

34:                                               ; preds = %32
  %35 = tail call i64 @strlen(ptr noundef nonnull dereferenceable(1) %31) #13
  %36 = getelementptr i8, ptr %31, i64 %35
  %37 = getelementptr i8, ptr %36, i64 -1
  %38 = load i8, ptr %37, align 1, !tbaa !26
  %.not62 = icmp eq i8 %38, 47
  br i1 %.not62, label %.critedge, label %39

39:                                               ; preds = %34
  call void @llvm.lifetime.start.p0(i64 24, ptr nonnull %4) #11
  call void @llvm.memset.p0.i64(ptr noundef nonnull align 8 dereferenceable(24) %4, i8 0, i64 24, i1 false)
  %40 = tail call i64 @strlen(ptr noundef nonnull dereferenceable(1) %31) #13
  %41 = add i64 %40, 2
  %42 = call ptr @archive_string_ensure(ptr noundef nonnull %4, i64 noundef %41) #11
  %.not63 = icmp eq ptr %42, null
  br i1 %.not63, label %.thread, label %43

.thread:                                          ; preds = %39
  call void (ptr, i32, ptr, ...) @archive_set_error(ptr noundef nonnull %0, i32 noundef 12, ptr noundef nonnull @.str.1) #11
  call void @archive_string_free(ptr noundef nonnull %4) #11
  call void @llvm.lifetime.end.p0(i64 24, ptr nonnull %4) #11
  br label %60

43:                                               ; preds = %39
  %44 = getelementptr inbounds nuw i8, ptr %4, i64 8
  store i64 0, ptr %44, align 8, !tbaa !31
  %45 = call ptr @archive_strncat(ptr noundef nonnull %4, ptr noundef nonnull %31, i64 noundef %40) #11
  %46 = call ptr @archive_strappend_char(ptr noundef nonnull %4, i8 noundef signext 47) #11
  %47 = load ptr, ptr %4, align 8, !tbaa !32
  call void @archive_entry_copy_pathname(ptr noundef %1, ptr noundef %47) #11
  call void @archive_string_free(ptr noundef nonnull %4) #11
  call void @llvm.lifetime.end.p0(i64 24, ptr nonnull %4) #11
  br label %.critedge

.critedge:                                        ; preds = %43, %30, %32, %34, %27
  %48 = call i32 @__archive_write_format_header_ustar(ptr noundef nonnull %0, ptr noundef nonnull %3, ptr noundef %1, i32 noundef -1, i32 noundef 1, ptr noundef %.051)
  %49 = icmp slt i32 %48, -20
  br i1 %49, label %50, label %51

50:                                               ; preds = %.critedge
  call void @archive_entry_free(ptr noundef null) #11
  br label %60

51:                                               ; preds = %.critedge
  %52 = call i32 @__archive_write_output(ptr noundef nonnull %0, ptr noundef nonnull %3, i64 noundef 512) #11
  %53 = icmp slt i32 %52, -20
  br i1 %53, label %54, label %55

54:                                               ; preds = %51
  call void @archive_entry_free(ptr noundef null) #11
  br label %60

55:                                               ; preds = %51
  %spec.select = call i32 @llvm.smin.i32(i32 %52, i32 %48)
  %56 = call i64 @archive_entry_size(ptr noundef %1) #11
  store i64 %56, ptr %6, align 8, !tbaa !33
  %57 = sub nsw i64 0, %56
  %58 = and i64 %57, 511
  %59 = getelementptr inbounds nuw i8, ptr %6, i64 8
  store i64 %58, ptr %59, align 8, !tbaa !34
  call void @archive_entry_free(ptr noundef null) #11
  br label %60

60:                                               ; preds = %.thread, %55, %54, %50, %19
  %.0 = phi i32 [ -25, %19 ], [ %48, %50 ], [ %52, %54 ], [ %spec.select, %55 ], [ -30, %.thread ]
  call void @llvm.lifetime.end.p0(i64 512, ptr nonnull %3) #11
  ret i32 %.0
}